; Function Attrs: mustprogress nofree norecurse nosync nounwind willreturn memory(read, inaccessiblemem: none) uwtable
define zeroext range(i8 0, 2) i8 @l_Lean_RBMap_isSingleton___rarg(ptr noundef %0) local_unnamed_addr #5 {
  %2 = ptrtoint ptr %0 to i64
  %3 = and i64 %2, 1
  %.not.i.i = icmp eq i64 %3, 0
  br i1 %.not.i.i, label %7, label %4

4:                                                ; preds = %1
  %5 = lshr i64 %2, 1
  %6 = trunc i64 %5 to i32
  br label %lean_obj_tag.exit.i

7:                                                ; preds = %1
  %8 = getelementptr i8, ptr %0, i64 4
  %.val.i.i = load i32, ptr %8, align 4
  %9 = lshr i32 %.val.i.i, 24
  br label %lean_obj_tag.exit.i

lean_obj_tag.exit.i:                              ; preds = %7, %4
  %.0.i.i = phi i32 [ %6, %4 ], [ %9, %7 ]
  %10 = icmp eq i32 %.0.i.i, 0
  br i1 %10, label %l_Lean_RBNode_isSingleton___rarg.exit, label %11

11:                                               ; preds = %lean_obj_tag.exit.i
  %12 = getelementptr inbounds nuw i8, ptr %0, i64 8
  %13 = load ptr, ptr %12, align 8, !tbaa !10
  %14 = ptrtoint ptr %13 to i64
  %15 = and i64 %14, 1
  %.not.i9.i = icmp eq i64 %15, 0
  br i1 %.not.i9.i, label %19, label %16

16:                                               ; preds = %11
  %17 = lshr i64 %14, 1
  %18 = trunc i64 %17 to i32
  br label %lean_obj_tag.exit12.i

19:                                               ; preds = %11
  %20 = getelementptr i8, ptr %13, i64 4
  %.val.i11.i = load i32, ptr %20, align 4
  %21 = lshr i32 %.val.i11.i, 24
  br label %lean_obj_tag.exit12.i

lean_obj_tag.exit12.i:                            ; preds = %19, %16
  %.0.i10.i = phi i32 [ %18, %16 ], [ %21, %19 ]
  %22 = icmp eq i32 %.0.i10.i, 0
  br i1 %22, label %23, label %l_Lean_RBNode_isSingleton___rarg.exit

23:                                               ; preds = %lean_obj_tag.exit12.i
  %24 = getelementptr inbounds nuw i8, ptr %0, i64 32
  %25 = load ptr, ptr %24, align 8, !tbaa !10
  %26 = ptrtoint ptr %25 to i64
  %27 = and i64 %26, 1
  %.not.i13.i = icmp eq i64 %27, 0
  br i1 %.not.i13.i, label %31, label %28

28:                                               ; preds = %23
  %29 = lshr i64 %26, 1
  %30 = trunc i64 %29 to i32
  br label %lean_obj_tag.exit16.i

31:                                               ; preds = %23
  %32 = getelementptr i8, ptr %25, i64 4
  %.val.i15.i = load i32, ptr %32, align 4
  %33 = lshr i32 %.val.i15.i, 24
  br label %lean_obj_tag.exit16.i

lean_obj_tag.exit16.i:                            ; preds = %31, %28
  %.0.i14.i = phi i32 [ %30, %28 ], [ %33, %31 ]
  %34 = icmp eq i32 %.0.i14.i, 0
  %..i = zext i1 %34 to i8
  br label %l_Lean_RBNode_isSingleton___rarg.exit

l_Lean_RBNode_isSingleton___rarg.exit:            ; preds = %lean_obj_tag.exit.i, %lean_obj_tag.exit12.i, %lean_obj_tag.exit16.i
  %.0.i = phi i8 [ 0, %lean_obj_tag.exit.i ], [ %..i, %lean_obj_tag.exit16.i ], [ 0, %lean_obj_tag.exit12.i ]
  ret i8 %.0.i
}